(dp1
S'normalTraining'
p2
(dp3
S'lossTest'
p4
(lp5
cnumpy.core.multiarray
scalar
p6
(cnumpy
dtype
p7
(S'f2'
I0
I1
tRp8
(I3
S'<'
NNNI-1
I-1
I0
tbS'\xac?'
tRp9
ag6
(g8
S'\xb1>'
tRp10
ag6
(g8
S'\xb1='
tRp11
ag6
(g8
S'\xb7<'
tRp12
ag6
(g8
S'\xb4<'
tRp13
ag6
(g8
S'\xe4;'
tRp14
ag6
(g8
S'\xad;'
tRp15
ag6
(g8
S'\xb9:'
tRp16
ag6
(g8
S'o:'
tRp17
ag6
(g8
S'\xfc9'
tRp18
ag6
(g8
S'u9'
tRp19
ag6
(g8
S'[9'
tRp20
ag6
(g8
S':9'
tRp21
ag6
(g8
S'\xd28'
tRp22
ag6
(g8
S'\xb68'
tRp23
ag6
(g8
S'\xf18'
tRp24
ag6
(g8
S'\xed8'
tRp25
ag6
(g8
S'\x968'
tRp26
ag6
(g8
S'\x7f8'
tRp27
ag6
(g8
S"'8"
tRp28
ag6
(g8
S'X8'
tRp29
ag6
(g8
S'\xae8'
tRp30
ag6
(g8
S'"8'
tRp31
ag6
(g8
S'+8'
tRp32
ag6
(g8
S'\xd97'
tRp33
ag6
(g8
S'\x0b8'
tRp34
ag6
(g8
S'\x188'
tRp35
ag6
(g8
S'&8'
tRp36
ag6
(g8
S'\xf57'
tRp37
ag6
(g8
S'\xb57'
tRp38
ag6
(g8
S'\xb17'
tRp39
ag6
(g8
S'\xcb7'
tRp40
ag6
(g8
S'\xd47'
tRp41
ag6
(g8
S'\xba7'
tRp42
ag6
(g8
S'\xcb7'
tRp43
ag6
(g8
S'\xc27'
tRp44
ag6
(g8
S'\r8'
tRp45
ag6
(g8
S'\x108'
tRp46
ag6
(g8
S'\xcf7'
tRp47
ag6
(g8
S'\x068'
tRp48
ag6
(g8
S'\xa77'
tRp49
ag6
(g8
S'\x148'
tRp50
ag6
(g8
S'\x058'
tRp51
ag6
(g8
S'\xee7'
tRp52
ag6
(g8
S'\x8d7'
tRp53
ag6
(g8
S'q7'
tRp54
ag6
(g8
S'\xcc7'
tRp55
ag6
(g8
S'\x0f8'
tRp56
ag6
(g8
S'\x0f8'
tRp57
ag6
(g8
S'\x8b7'
tRp58
ag6
(g8
S'\xaa7'
tRp59
ag6
(g8
S'\x927'
tRp60
ag6
(g8
S'\x927'
tRp61
ag6
(g8
S'\x008'
tRp62
ag6
(g8
S'\t8'
tRp63
ag6
(g8
S'\xfa7'
tRp64
ag6
(g8
S'\xb17'
tRp65
ag6
(g8
S'\x977'
tRp66
ag6
(g8
S'\xb97'
tRp67
ag6
(g8
S'\x987'
tRp68
ag6
(g8
S'`7'
tRp69
ag6
(g8
S'}7'
tRp70
ag6
(g8
S'\xaf7'
tRp71
ag6
(g8
S'h7'
tRp72
ag6
(g8
S'\xc27'
tRp73
ag6
(g8
S'\x8b7'
tRp74
ag6
(g8
S'd7'
tRp75
ag6
(g8
S'\x178'
tRp76
ag6
(g8
S'\xb77'
tRp77
ag6
(g8
S'W8'
tRp78
ag6
(g8
S'\x8a7'
tRp79
ag6
(g8
S'^7'
tRp80
ag6
(g8
S'\xe86'
tRp81
ag6
(g8
S'\x187'
tRp82
ag6
(g8
S'\x1f7'
tRp83
ag6
(g8
S'x7'
tRp84
ag6
(g8
S'\x127'
tRp85
ag6
(g8
S'\x127'
tRp86
ag6
(g8
S'$7'
tRp87
ag6
(g8
S"'7"
tRp88
ag6
(g8
S'\x1d7'
tRp89
ag6
(g8
S'\x1a7'
tRp90
ag6
(g8
S'$7'
tRp91
ag6
(g8
S'I7'
tRp92
ag6
(g8
S'\x1f7'
tRp93
ag6
(g8
S'B7'
tRp94
ag6
(g8
S'^7'
tRp95
ag6
(g8
S'27'
tRp96
ag6
(g8
S'\x1f7'
tRp97
ag6
(g8
S'?7'
tRp98
ag6
(g8
S'`7'
tRp99
ag6
(g8
S'c7'
tRp100
ag6
(g8
S'F7'
tRp101
ag6
(g8
S'97'
tRp102
ag6
(g8
S'-7'
tRp103
ag6
(g8
S'-7'
tRp104
ag6
(g8
S'<7'
tRp105
ag6
(g8
S'A7'
tRp106
ag6
(g8
S'>7'
tRp107
ag6
(g8
S'>7'
tRp108
ag6
(g8
S'L7'
tRp109
ag6
(g8
S'N7'
tRp110
ag6
(g8
S'77'
tRp111
ag6
(g8
S'\xa07'
tRp112
ag6
(g8
S'a7'
tRp113
ag6
(g8
S'T7'
tRp114
ag6
(g8
S'>7'
tRp115
ag6
(g8
S'57'
tRp116
ag6
(g8
S'57'
tRp117
ag6
(g8
S'K7'
tRp118
ag6
(g8
S'?7'
tRp119
ag6
(g8
S"'7"
tRp120
ag6
(g8
S'>7'
tRp121
ag6
(g8
S'47'
tRp122
ag6
(g8
S'>7'
tRp123
ag6
(g8
S')7'
tRp124
ag6
(g8
S'*7'
tRp125
ag6
(g8
S'G7'
tRp126
ag6
(g8
S',7'
tRp127
ag6
(g8
S'I7'
tRp128
ag6
(g8
S'K7'
tRp129
ag6
(g8
S'?7'
tRp130
ag6
(g8
S'S7'
tRp131
ag6
(g8
S'57'
tRp132
ag6
(g8
S'<7'
tRp133
ag6
(g8
S'f7'
tRp134
ag6
(g8
S'*7'
tRp135
ag6
(g8
S'V7'
tRp136
ag6
(g8
S'F7'
tRp137
ag6
(g8
S'>7'
tRp138
ag6
(g8
S'^7'
tRp139
ag6
(g8
S'A7'
tRp140
ag6
(g8
S'T7'
tRp141
ag6
(g8
S'W7'
tRp142
ag6
(g8
S'17'
tRp143
ag6
(g8
S'Q7'
tRp144
ag6
(g8
S'[7'
tRp145
ag6
(g8
S'<7'
tRp146
ag6
(g8
S'47'
tRp147
ag6
(g8
S'57'
tRp148
ag6
(g8
S'T7'
tRp149
ag6
(g8
S':7'
tRp150
ag6
(g8
S':7'
tRp151
ag6
(g8
S'c7'
tRp152
ag6
(g8
S'F7'
tRp153
ag6
(g8
S'W7'
tRp154
ag6
(g8
S'[7'
tRp155
ag6
(g8
S'27'
tRp156
ag6
(g8
S'N7'
tRp157
ag6
(g8
S'a7'
tRp158
ag6
(g8
S'T7'
tRp159
ag6
(g8
S'A7'
tRp160
ag6
(g8
S'G7'
tRp161
ag6
(g8
S'I7'
tRp162
ag6
(g8
S'27'
tRp163
ag6
(g8
S'N7'
tRp164
ag6
(g8
S'17'
tRp165
ag6
(g8
S'S7'
tRp166
ag6
(g8
S'B7'
tRp167
ag6
(g8
S'17'
tRp168
ag6
(g8
S'n7'
tRp169
ag6
(g8
S'47'
tRp170
ag6
(g8
S'57'
tRp171
ag6
(g8
S'x7'
tRp172
ag6
(g8
S'/7'
tRp173
ag6
(g8
S'97'
tRp174
ag6
(g8
S'97'
tRp175
ag6
(g8
S'[7'
tRp176
ag6
(g8
S'D7'
tRp177
ag6
(g8
S'?7'
tRp178
ag6
(g8
S'T7'
tRp179
ag6
(g8
S'A7'
tRp180
ag6
(g8
S'47'
tRp181
asS'accuracyTest'
p182
(lp183
g6
(g8
S'\xb44'
tRp184
ag6
(g8
S'\xe25'
tRp185
ag6
(g8
S'\x927'
tRp186
ag6
(g8
S'\x978'
tRp187
ag6
(g8
S'\xba8'
tRp188
ag6
(g8
S')9'
tRp189
ag6
(g8
S'F9'
tRp190
ag6
(g8
S'\x959'
tRp191
ag6
(g8
S'\xb29'
tRp192
ag6
(g8
S'\xe19'
tRp193
ag6
(g8
S'\x1c:'
tRp194
ag6
(g8
S'1:'
tRp195
ag6
(g8
S'.:'
tRp196
ag6
(g8
S'W:'
tRp197
ag6
(g8
S'\\:'
tRp198
ag6
(g8
S'P:'
tRp199
ag6
(g8
S'O:'
tRp200
ag6
(g8
S'g:'
tRp201
ag6
(g8
S'w:'
tRp202
ag6
(g8
S'\x98:'
tRp203
ag6
(g8
S'\x88:'
tRp204
ag6
(g8
S'm:'
tRp205
ag6
(g8
S'\x9d:'
tRp206
ag6
(g8
S'\xa0:'
tRp207
ag6
(g8
S'\xad:'
tRp208
ag6
(g8
S'\xa5:'
tRp209
ag6
(g8
S'\x9f:'
tRp210
ag6
(g8
S'\xa7:'
tRp211
ag6
(g8
S'\xaa:'
tRp212
ag6
(g8
S'\xb4:'
tRp213
ag6
(g8
S'\xb1:'
tRp214
ag6
(g8
S'\xb2:'
tRp215
ag6
(g8
S'\xb9:'
tRp216
ag6
(g8
S'\xba:'
tRp217
ag6
(g8
S'\xb9:'
tRp218
ag6
(g8
S'\xbc:'
tRp219
ag6
(g8
S'\xa2:'
tRp220
ag6
(g8
S'\xaf:'
tRp221
ag6
(g8
S'\xb5:'
tRp222
ag6
(g8
S'\xaa:'
tRp223
ag6
(g8
S'\xba:'
tRp224
ag6
(g8
S'\xa2:'
tRp225
ag6
(g8
S'\xb7:'
tRp226
ag6
(g8
S'\xbe:'
tRp227
ag6
(g8
S'\xbe:'
tRp228
ag6
(g8
S'\xc7:'
tRp229
ag6
(g8
S'\xba:'
tRp230
ag6
(g8
S'\xaf:'
tRp231
ag6
(g8
S'\xb1:'
tRp232
ag6
(g8
S'\xc6:'
tRp233
ag6
(g8
S'\xbc:'
tRp234
ag6
(g8
S'\xbe:'
tRp235
ag6
(g8
S'\xc6:'
tRp236
ag6
(g8
S'\xbe:'
tRp237
ag6
(g8
S'\xaf:'
tRp238
ag6
(g8
S'\xbc:'
tRp239
ag6
(g8
S'\xc6:'
tRp240
ag6
(g8
S'\xc4:'
tRp241
ag6
(g8
S'\xc2:'
tRp242
ag6
(g8
S'\xc6:'
tRp243
ag6
(g8
S'\xc7:'
tRp244
ag6
(g8
S'\xd1:'
tRp245
ag6
(g8
S'\xb9:'
tRp246
ag6
(g8
S'\xcc:'
tRp247
ag6
(g8
S'\xc7:'
tRp248
ag6
(g8
S'\xc2:'
tRp249
ag6
(g8
S'\xcb:'
tRp250
ag6
(g8
S'\xb5:'
tRp251
ag6
(g8
S'\xbf:'
tRp252
ag6
(g8
S'\xa5:'
tRp253
ag6
(g8
S'\xc6:'
tRp254
ag6
(g8
S'\xcb:'
tRp255
ag6
(g8
S'\xe8:'
tRp256
ag6
(g8
S'\xe6:'
tRp257
ag6
(g8
S'\xe6:'
tRp258
ag6
(g8
S'\xe3:'
tRp259
ag6
(g8
S'\xf1:'
tRp260
ag6
(g8
S'\xee:'
tRp261
ag6
(g8
S'\xeb:'
tRp262
ag6
(g8
S'\xeb:'
tRp263
ag6
(g8
S'\xeb:'
tRp264
ag6
(g8
S'\xf0:'
tRp265
ag6
(g8
S'\xf3:'
tRp266
ag6
(g8
S'\xed:'
tRp267
ag6
(g8
S'\xf1:'
tRp268
ag6
(g8
S'\xeb:'
tRp269
ag6
(g8
S'\xeb:'
tRp270
ag6
(g8
S'\xf0:'
tRp271
ag6
(g8
S'\xed:'
tRp272
ag6
(g8
S'\xed:'
tRp273
ag6
(g8
S'\xed:'
tRp274
ag6
(g8
S'\xee:'
tRp275
ag6
(g8
S'\xee:'
tRp276
ag6
(g8
S'\xee:'
tRp277
ag6
(g8
S'\xf0:'
tRp278
ag6
(g8
S'\xf0:'
tRp279
ag6
(g8
S'\xed:'
tRp280
ag6
(g8
S'\xf1:'
tRp281
ag6
(g8
S'\xf5:'
tRp282
ag6
(g8
S'\xed:'
tRp283
ag6
(g8
S'\xee:'
tRp284
ag6
(g8
S'\xeb:'
tRp285
ag6
(g8
S'\xee:'
tRp286
ag6
(g8
S'\xe6:'
tRp287
ag6
(g8
S'\xee:'
tRp288
ag6
(g8
S'\xed:'
tRp289
ag6
(g8
S'\xf0:'
tRp290
ag6
(g8
S'\xeb:'
tRp291
ag6
(g8
S'\xf0:'
tRp292
ag6
(g8
S'\xf0:'
tRp293
ag6
(g8
S'\xf0:'
tRp294
ag6
(g8
S'\xf0:'
tRp295
ag6
(g8
S'\xf3:'
tRp296
ag6
(g8
S'\xf1:'
tRp297
ag6
(g8
S'\xf3:'
tRp298
ag6
(g8
S'\xf1:'
tRp299
ag6
(g8
S'\xf1:'
tRp300
ag6
(g8
S'\xed:'
tRp301
ag6
(g8
S'\xf5:'
tRp302
ag6
(g8
S'\xee:'
tRp303
ag6
(g8
S'\xf1:'
tRp304
ag6
(g8
S'\xf1:'
tRp305
ag6
(g8
S'\xf0:'
tRp306
ag6
(g8
S'\xf0:'
tRp307
ag6
(g8
S'\xed:'
tRp308
ag6
(g8
S'\xe8:'
tRp309
ag6
(g8
S'\xf5:'
tRp310
ag6
(g8
S'\xee:'
tRp311
ag6
(g8
S'\xf0:'
tRp312
ag6
(g8
S'\xf0:'
tRp313
ag6
(g8
S'\xed:'
tRp314
ag6
(g8
S'\xf0:'
tRp315
ag6
(g8
S'\xee:'
tRp316
ag6
(g8
S'\xed:'
tRp317
ag6
(g8
S'\xf1:'
tRp318
ag6
(g8
S'\xf0:'
tRp319
ag6
(g8
S'\xed:'
tRp320
ag6
(g8
S'\xf1:'
tRp321
ag6
(g8
S'\xf1:'
tRp322
ag6
(g8
S'\xf1:'
tRp323
ag6
(g8
S'\xed:'
tRp324
ag6
(g8
S'\xf1:'
tRp325
ag6
(g8
S'\xf1:'
tRp326
ag6
(g8
S'\xed:'
tRp327
ag6
(g8
S'\xf0:'
tRp328
ag6
(g8
S'\xf0:'
tRp329
ag6
(g8
S'\xee:'
tRp330
ag6
(g8
S'\xf0:'
tRp331
ag6
(g8
S'\xed:'
tRp332
ag6
(g8
S'\xee:'
tRp333
ag6
(g8
S'\xee:'
tRp334
ag6
(g8
S'\xf0:'
tRp335
ag6
(g8
S'\xee:'
tRp336
ag6
(g8
S'\xf0:'
tRp337
ag6
(g8
S'\xf3:'
tRp338
ag6
(g8
S'\xee:'
tRp339
ag6
(g8
S'\xf3:'
tRp340
ag6
(g8
S'\xee:'
tRp341
ag6
(g8
S'\xf0:'
tRp342
ag6
(g8
S'\xf5:'
tRp343
ag6
(g8
S'\xf0:'
tRp344
ag6
(g8
S'\xf3:'
tRp345
ag6
(g8
S'\xf3:'
tRp346
ag6
(g8
S'\xe9:'
tRp347
ag6
(g8
S'\xf3:'
tRp348
ag6
(g8
S'\xf0:'
tRp349
ag6
(g8
S'\xf0:'
tRp350
ag6
(g8
S'\xee:'
tRp351
ag6
(g8
S'\xf0:'
tRp352
ag6
(g8
S'\xf1:'
tRp353
ag6
(g8
S'\xed:'
tRp354
ag6
(g8
S'\xf0:'
tRp355
ag6
(g8
S'\xf1:'
tRp356
asS'confusionMatrix'
p357
cnumpy.core.multiarray
_reconstruct
p358
(cnumpy
ndarray
p359
(I0
tS'b'
tRp360
(I1
(I10
I10
tg7
(S'f8'
I0
I1
tRp361
(I3
S'<'
NNNI-1
I-1
I0
tbI00
S'\x00\x00\x00\x00\x00\x18\x8c@\x00\x00\x00\x00\x00\x00\x1c@\x00\x00\x00\x00\x00\x00B@\x00\x00\x00\x00\x00\x00(@\x00\x00\x00\x00\x00\x00\x18@\x00\x00\x00\x00\x00\x00 @\x00\x00\x00\x00\x00\x00\x08@\x00\x00\x00\x00\x00\x00$@\x00\x00\x00\x00\x00\x00;@\x00\x00\x00\x00\x00\x00$@\x00\x00\x00\x00\x00\x00\x18@\x00\x00\x00\x00\x00\xf0\x8c@\x00\x00\x00\x00\x00\x00\xf0?\x00\x00\x00\x00\x00\x00\xf0?\x00\x00\x00\x00\x00\x00\xf0?\x00\x00\x00\x00\x00\x00\x10@\x00\x00\x00\x00\x00\x00\x08@\x00\x00\x00\x00\x00\x00\x00\x00\x00\x00\x00\x00\x00\x00*@\x00\x00\x00\x00\x00\x00C@\x00\x00\x00\x00\x00\x004@\x00\x00\x00\x00\x00\x00\x00@\x00\x00\x00\x00\x00\x98\x88@\x00\x00\x00\x00\x00\x00C@\x00\x00\x00\x00\x00\x00?@\x00\x00\x00\x00\x00\x004@\x00\x00\x00\x00\x00\x003@\x00\x00\x00\x00\x00\x00"@\x00\x00\x00\x00\x00\x00\x14@\x00\x00\x00\x00\x00\x00\x00@\x00\x00\x00\x00\x00\x00$@\x00\x00\x00\x00\x00\x00\x00@\x00\x00\x00\x00\x00\x00<@\x00\x00\x00\x00\x00\x90\x86@\x00\x00\x00\x00\x00\x80A@\x00\x00\x00\x00\x00\x80Z@\x00\x00\x00\x00\x00\x008@\x00\x00\x00\x00\x00\x00,@\x00\x00\x00\x00\x00\x00 @\x00\x00\x00\x00\x00\x00\x1c@\x00\x00\x00\x00\x00\x00"@\x00\x00\x00\x00\x00\x00\x08@\x00\x00\x00\x00\x00\x00G@\x00\x00\x00\x00\x00\x00B@\x00\x00\x00\x00\x00\x10\x8b@\x00\x00\x00\x00\x00\x00;@\x00\x00\x00\x00\x00\x000@\x00\x00\x00\x00\x00\x00=@\x00\x00\x00\x00\x00\x00\xf0?\x00\x00\x00\x00\x00\x00\x00@\x00\x00\x00\x00\x00\x00\x00@\x00\x00\x00\x00\x00\x00\x00@\x00\x00\x00\x00\x00\x00A@\x00\x00\x00\x00\x00\x00[@\x00\x00\x00\x00\x00\x00"@\x00\x00\x00\x00\x00(\x89@\x00\x00\x00\x00\x00\x00\x1c@\x00\x00\x00\x00\x00\x00:@\x00\x00\x00\x00\x00\x00\x10@\x00\x00\x00\x00\x00\x00\x00\x00\x00\x00\x00\x00\x00\x00\x18@\x00\x00\x00\x00\x00\x00\x00@\x00\x00\x00\x00\x00\x00E@\x00\x00\x00\x00\x00\x80H@\x00\x00\x00\x00\x00\x006@\x00\x00\x00\x00\x00\x00 @\x00\x00\x00\x00\x00\xb8\x8c@\x00\x00\x00\x00\x00\x00\xf0?\x00\x00\x00\x00\x00\x00\x10@\x00\x00\x00\x00\x00\x00\x10@\x00\x00\x00\x00\x00\x00\x08@\x00\x00\x00\x00\x00\x00\x00\x00\x00\x00\x00\x00\x00\x000@\x00\x00\x00\x00\x00\x004@\x00\x00\x00\x00\x00\x00;@\x00\x00\x00\x00\x00\x001@\x00\x00\x00\x00\x00\x00\x10@\x00\x00\x00\x00\x00X\x8c@\x00\x00\x00\x00\x00\x00\xf0?\x00\x00\x00\x00\x00\x00\x14@\x00\x00\x00\x00\x00\x009@\x00\x00\x00\x00\x00\x00,@\x00\x00\x00\x00\x00\x00\x18@\x00\x00\x00\x00\x00\x00\x10@\x00\x00\x00\x00\x00\x00\x08@\x00\x00\x00\x00\x00\x00\x00@\x00\x00\x00\x00\x00\x00\x08@\x00\x00\x00\x00\x00\x00\xf0?\x00\x00\x00\x00\x00\xc8\x8c@\x00\x00\x00\x00\x00\x00&@\x00\x00\x00\x00\x00\x004@\x00\x00\x00\x00\x00\x00E@\x00\x00\x00\x00\x00\x00\x10@\x00\x00\x00\x00\x00\x00$@\x00\x00\x00\x00\x00\x00\x00\x00\x00\x00\x00\x00\x00\x00\x08@\x00\x00\x00\x00\x00\x00\x00@\x00\x00\x00\x00\x00\x00\x08@\x00\x00\x00\x00\x00\x000@\x00\x00\x00\x00\x00\xc8\x8c@'
tbsS'accuracyTraining'
p362
(lp363
g6
(g8
S'\xd91'
tRp364
ag6
(g8
S'\xe24'
tRp365
ag6
(g8
S'x6'
tRp366
ag6
(g8
S'\xfc7'
tRp367
ag6
(g8
S'\x848'
tRp368
ag6
(g8
S'\xd58'
tRp369
ag6
(g8
S'%9'
tRp370
ag6
(g8
S'_9'
tRp371
ag6
(g8
S'\x8f9'
tRp372
ag6
(g8
S'\xc89'
tRp373
ag6
(g8
S'\xe69'
tRp374
ag6
(g8
S'\t:'
tRp375
ag6
(g8
S'+:'
tRp376
ag6
(g8
S'C:'
tRp377
ag6
(g8
S'd:'
tRp378
ag6
(g8
S's:'
tRp379
ag6
(g8
S'\x8c:'
tRp380
ag6
(g8
S'\x9b:'
tRp381
ag6
(g8
S'\xac:'
tRp382
ag6
(g8
S'\xbd:'
tRp383
ag6
(g8
S'\xcb:'
tRp384
ag6
(g8
S'\xd7:'
tRp385
ag6
(g8
S'\xe3:'
tRp386
ag6
(g8
S'\xe6:'
tRp387
ag6
(g8
S'\xf1:'
tRp388
ag6
(g8
S'\x01;'
tRp389
ag6
(g8
S'\t;'
tRp390
ag6
(g8
S'\x0e;'
tRp391
ag6
(g8
S'\x1a;'
tRp392
ag6
(g8
S' ;'
tRp393
ag6
(g8
S"';"
tRp394
ag6
(g8
S');'
tRp395
ag6
(g8
S'.;'
tRp396
ag6
(g8
S'2;'
tRp397
ag6
(g8
S'1;'
tRp398
ag6
(g8
S'6;'
tRp399
ag6
(g8
S'<;'
tRp400
ag6
(g8
S'C;'
tRp401
ag6
(g8
S'A;'
tRp402
ag6
(g8
S'G;'
tRp403
ag6
(g8
S'G;'
tRp404
ag6
(g8
S'G;'
tRp405
ag6
(g8
S'I;'
tRp406
ag6
(g8
S'S;'
tRp407
ag6
(g8
S'O;'
tRp408
ag6
(g8
S'W;'
tRp409
ag6
(g8
S'X;'
tRp410
ag6
(g8
S'V;'
tRp411
ag6
(g8
S'[;'
tRp412
ag6
(g8
S'W;'
tRp413
ag6
(g8
S'_;'
tRp414
ag6
(g8
S'^;'
tRp415
ag6
(g8
S'_;'
tRp416
ag6
(g8
S'Z;'
tRp417
ag6
(g8
S'c;'
tRp418
ag6
(g8
S'_;'
tRp419
ag6
(g8
S'd;'
tRp420
ag6
(g8
S'c;'
tRp421
ag6
(g8
S'd;'
tRp422
ag6
(g8
S'`;'
tRp423
ag6
(g8
S'c;'
tRp424
ag6
(g8
S'g;'
tRp425
ag6
(g8
S'g;'
tRp426
ag6
(g8
S'i;'
tRp427
ag6
(g8
S'h;'
tRp428
ag6
(g8
S'i;'
tRp429
ag6
(g8
S'g;'
tRp430
ag6
(g8
S'l;'
tRp431
ag6
(g8
S'k;'
tRp432
ag6
(g8
S'l;'
tRp433
ag6
(g8
S'l;'
tRp434
ag6
(g8
S'k;'
tRp435
ag6
(g8
S'\xa3;'
tRp436
ag6
(g8
S'\xb7;'
tRp437
ag6
(g8
S'\xc0;'
tRp438
ag6
(g8
S'\xc2;'
tRp439
ag6
(g8
S'\xc5;'
tRp440
ag6
(g8
S'\xc9;'
tRp441
ag6
(g8
S'\xcd;'
tRp442
ag6
(g8
S'\xcc;'
tRp443
ag6
(g8
S'\xd1;'
tRp444
ag6
(g8
S'\xd0;'
tRp445
ag6
(g8
S'\xd3;'
tRp446
ag6
(g8
S'\xd3;'
tRp447
ag6
(g8
S'\xd3;'
tRp448
ag6
(g8
S'\xd5;'
tRp449
ag6
(g8
S'\xd5;'
tRp450
ag6
(g8
S'\xd7;'
tRp451
ag6
(g8
S'\xd6;'
tRp452
ag6
(g8
S'\xd9;'
tRp453
ag6
(g8
S'\xd9;'
tRp454
ag6
(g8
S'\xdb;'
tRp455
ag6
(g8
S'\xdb;'
tRp456
ag6
(g8
S'\xda;'
tRp457
ag6
(g8
S'\xd9;'
tRp458
ag6
(g8
S'\xdd;'
tRp459
ag6
(g8
S'\xdb;'
tRp460
ag6
(g8
S'\xdb;'
tRp461
ag6
(g8
S'\xda;'
tRp462
ag6
(g8
S'\xdb;'
tRp463
ag6
(g8
S'\xde;'
tRp464
ag6
(g8
S'\xde;'
tRp465
ag6
(g8
S'\xdd;'
tRp466
ag6
(g8
S'\xdd;'
tRp467
ag6
(g8
S'\xdb;'
tRp468
ag6
(g8
S'\xde;'
tRp469
ag6
(g8
S'\xdd;'
tRp470
ag6
(g8
S'\xe1;'
tRp471
ag6
(g8
S'\xe2;'
tRp472
ag6
(g8
S'\xe2;'
tRp473
ag6
(g8
S'\xe1;'
tRp474
ag6
(g8
S'\xe3;'
tRp475
ag6
(g8
S'\xe3;'
tRp476
ag6
(g8
S'\xe2;'
tRp477
ag6
(g8
S'\xe7;'
tRp478
ag6
(g8
S'\xe6;'
tRp479
ag6
(g8
S'\xe6;'
tRp480
ag6
(g8
S'\xe5;'
tRp481
ag6
(g8
S'\xe3;'
tRp482
ag6
(g8
S'\xe2;'
tRp483
ag6
(g8
S'\xe2;'
tRp484
ag6
(g8
S'\xe5;'
tRp485
ag6
(g8
S'\xe5;'
tRp486
ag6
(g8
S'\xe5;'
tRp487
ag6
(g8
S'\xe2;'
tRp488
ag6
(g8
S'\xe3;'
tRp489
ag6
(g8
S'\xe5;'
tRp490
ag6
(g8
S'\xe7;'
tRp491
ag6
(g8
S'\xe5;'
tRp492
ag6
(g8
S'\xe5;'
tRp493
ag6
(g8
S'\xe5;'
tRp494
ag6
(g8
S'\xe2;'
tRp495
ag6
(g8
S'\xe3;'
tRp496
ag6
(g8
S'\xe6;'
tRp497
ag6
(g8
S'\xe6;'
tRp498
ag6
(g8
S'\xe6;'
tRp499
ag6
(g8
S'\xe5;'
tRp500
ag6
(g8
S'\xe5;'
tRp501
ag6
(g8
S'\xe5;'
tRp502
ag6
(g8
S'\xe5;'
tRp503
ag6
(g8
S'\xe6;'
tRp504
ag6
(g8
S'\xe5;'
tRp505
ag6
(g8
S'\xe7;'
tRp506
ag6
(g8
S'\xe7;'
tRp507
ag6
(g8
S'\xe3;'
tRp508
ag6
(g8
S'\xe6;'
tRp509
ag6
(g8
S'\xe5;'
tRp510
ag6
(g8
S'\xe5;'
tRp511
ag6
(g8
S'\xe6;'
tRp512
ag6
(g8
S'\xe7;'
tRp513
ag6
(g8
S'\xe5;'
tRp514
ag6
(g8
S'\xe6;'
tRp515
ag6
(g8
S'\xe5;'
tRp516
ag6
(g8
S'\xe5;'
tRp517
ag6
(g8
S'\xe5;'
tRp518
ag6
(g8
S'\xe6;'
tRp519
ag6
(g8
S'\xe7;'
tRp520
ag6
(g8
S'\xe6;'
tRp521
ag6
(g8
S'\xe5;'
tRp522
ag6
(g8
S'\xe5;'
tRp523
ag6
(g8
S'\xe6;'
tRp524
ag6
(g8
S'\xe6;'
tRp525
ag6
(g8
S'\xe7;'
tRp526
ag6
(g8
S'\xe5;'
tRp527
ag6
(g8
S'\xe6;'
tRp528
ag6
(g8
S'\xe5;'
tRp529
ag6
(g8
S'\xe6;'
tRp530
ag6
(g8
S'\xe5;'
tRp531
ag6
(g8
S'\xe6;'
tRp532
ag6
(g8
S'\xe6;'
tRp533
ag6
(g8
S'\xe6;'
tRp534
ag6
(g8
S'\xe3;'
tRp535
ag6
(g8
S'\xe6;'
tRp536
asS'lossTraining'
p537
(lp538
g6
(g8
S'vD'
tRp539
ag6
(g8
S'\x9cC'
tRp540
ag6
(g8
S'\xa0B'
tRp541
ag6
(g8
S'\xc0A'
tRp542
ag6
(g8
S'\x15A'
tRp543
ag6
(g8
S'\x92@'
tRp544
ag6
(g8
S' @'
tRp545
ag6
(g8
S'\x84?'
tRp546
ag6
(g8
S'\xe9>'
tRp547
ag6
(g8
S'T>'
tRp548
ag6
(g8
S'\xee='
tRp549
ag6
(g8
S'\x8d='
tRp550
ag6
(g8
S'8='
tRp551
ag6
(g8
S'\xf7<'
tRp552
ag6
(g8
S'\xbb<'
tRp553
ag6
(g8
S'\x94<'
tRp554
ag6
(g8
S'd<'
tRp555
ag6
(g8
S'F<'
tRp556
ag6
(g8
S'*<'
tRp557
ag6
(g8
S'\x1a<'
tRp558
ag6
(g8
S'\x05<'
tRp559
ag6
(g8
S'\xf6;'
tRp560
ag6
(g8
S'\xde;'
tRp561
ag6
(g8
S'\xde;'
tRp562
ag6
(g8
S'\xd6;'
tRp563
ag6
(g8
S'\xc9;'
tRp564
ag6
(g8
S'\xc5;'
tRp565
ag6
(g8
S'\xbc;'
tRp566
ag6
(g8
S'\xb1;'
tRp567
ag6
(g8
S'\xb3;'
tRp568
ag6
(g8
S'\xa8;'
tRp569
ag6
(g8
S'\xb3;'
tRp570
ag6
(g8
S'\xa8;'
tRp571
ag6
(g8
S'\xac;'
tRp572
ag6
(g8
S'\xb8;'
tRp573
ag6
(g8
S'\xb5;'
tRp574
ag6
(g8
S'\xb8;'
tRp575
ag6
(g8
S'\xab;'
tRp576
ag6
(g8
S'\xbc;'
tRp577
ag6
(g8
S'\xb1;'
tRp578
ag6
(g8
S'\xb8;'
tRp579
ag6
(g8
S'\xbc;'
tRp580
ag6
(g8
S'\xc4;'
tRp581
ag6
(g8
S'\xae;'
tRp582
ag6
(g8
S'\xb9;'
tRp583
ag6
(g8
S'\xae;'
tRp584
ag6
(g8
S'\xae;'
tRp585
ag6
(g8
S'\xb0;'
tRp586
ag6
(g8
S'\xa4;'
tRp587
ag6
(g8
S'\xb4;'
tRp588
ag6
(g8
S'\xa2;'
tRp589
ag6
(g8
S'\x9f;'
tRp590
ag6
(g8
S'\xa6;'
tRp591
ag6
(g8
S'\xb0;'
tRp592
ag6
(g8
S'\xa2;'
tRp593
ag6
(g8
S'\xac;'
tRp594
ag6
(g8
S'\xa4;'
tRp595
ag6
(g8
S'\x9f;'
tRp596
ag6
(g8
S'\xa4;'
tRp597
ag6
(g8
S'\xaf;'
tRp598
ag6
(g8
S'\xa7;'
tRp599
ag6
(g8
S'\xa0;'
tRp600
ag6
(g8
S'\xa8;'
tRp601
ag6
(g8
S'\x9a;'
tRp602
ag6
(g8
S'\x93;'
tRp603
ag6
(g8
S'\x9a;'
tRp604
ag6
(g8
S'\xa8;'
tRp605
ag6
(g8
S'\x97;'
tRp606
ag6
(g8
S'\x99;'
tRp607
ag6
(g8
S'\x95;'
tRp608
ag6
(g8
S'\x99;'
tRp609
ag6
(g8
S'\xa3;'
tRp610
ag6
(g8
S'\x05;'
tRp611
ag6
(g8
S'\xb7:'
tRp612
ag6
(g8
S'\x90:'
tRp613
ag6
(g8
S'q:'
tRp614
ag6
(g8
S'Y:'
tRp615
ag6
(g8
S'?:'
tRp616
ag6
(g8
S'&:'
tRp617
ag6
(g8
S'\x16:'
tRp618
ag6
(g8
S'\xf99'
tRp619
ag6
(g8
S'\xeb9'
tRp620
ag6
(g8
S'\xd19'
tRp621
ag6
(g8
S'\xbf9'
tRp622
ag6
(g8
S'\xaf9'
tRp623
ag6
(g8
S'\x9f9'
tRp624
ag6
(g8
S'\x919'
tRp625
ag6
(g8
S'y9'
tRp626
ag6
(g8
S'm9'
tRp627
ag6
(g8
S'\\9'
tRp628
ag6
(g8
S'J9'
tRp629
ag6
(g8
S';9'
tRp630
ag6
(g8
S'.9'
tRp631
ag6
(g8
S'%9'
tRp632
ag6
(g8
S'\x159'
tRp633
ag6
(g8
S'\x069'
tRp634
ag6
(g8
S'\xf78'
tRp635
ag6
(g8
S'\xee8'
tRp636
ag6
(g8
S'\xe28'
tRp637
ag6
(g8
S'\xd68'
tRp638
ag6
(g8
S'\xc58'
tRp639
ag6
(g8
S'\xb98'
tRp640
ag6
(g8
S'\xb08'
tRp641
ag6
(g8
S'\xa48'
tRp642
ag6
(g8
S'\x9c8'
tRp643
ag6
(g8
S'\x8b8'
tRp644
ag6
(g8
S'\x848'
tRp645
ag6
(g8
S'~8'
tRp646
ag6
(g8
S'z8'
tRp647
ag6
(g8
S'y8'
tRp648
ag6
(g8
S'z8'
tRp649
ag6
(g8
S'v8'
tRp650
ag6
(g8
S's8'
tRp651
ag6
(g8
S's8'
tRp652
ag6
(g8
S'j8'
tRp653
ag6
(g8
S'k8'
tRp654
ag6
(g8
S'i8'
tRp655
ag6
(g8
S'h8'
tRp656
ag6
(g8
S'j8'
tRp657
ag6
(g8
S'j8'
tRp658
ag6
(g8
S'h8'
tRp659
ag6
(g8
S'g8'
tRp660
ag6
(g8
S'd8'
tRp661
ag6
(g8
S'e8'
tRp662
ag6
(g8
S'd8'
tRp663
ag6
(g8
S'a8'
tRp664
ag6
(g8
S'_8'
tRp665
ag6
(g8
S'X8'
tRp666
ag6
(g8
S'^8'
tRp667
ag6
(g8
S'\\8'
tRp668
ag6
(g8
S'^8'
tRp669
ag6
(g8
S']8'
tRp670
ag6
(g8
S'\\8'
tRp671
ag6
(g8
S'T8'
tRp672
ag6
(g8
S'T8'
tRp673
ag6
(g8
S'Q8'
tRp674
ag6
(g8
S'U8'
tRp675
ag6
(g8
S'S8'
tRp676
ag6
(g8
S'R8'
tRp677
ag6
(g8
S'R8'
tRp678
ag6
(g8
S'S8'
tRp679
ag6
(g8
S'R8'
tRp680
ag6
(g8
S'O8'
tRp681
ag6
(g8
S'O8'
tRp682
ag6
(g8
S'V8'
tRp683
ag6
(g8
S'O8'
tRp684
ag6
(g8
S'T8'
tRp685
ag6
(g8
S'S8'
tRp686
ag6
(g8
S'Q8'
tRp687
ag6
(g8
S'N8'
tRp688
ag6
(g8
S'R8'
tRp689
ag6
(g8
S'O8'
tRp690
ag6
(g8
S'Q8'
tRp691
ag6
(g8
S'Q8'
tRp692
ag6
(g8
S'M8'
tRp693
ag6
(g8
S'Q8'
tRp694
ag6
(g8
S'O8'
tRp695
ag6
(g8
S'O8'
tRp696
ag6
(g8
S'P8'
tRp697
ag6
(g8
S'N8'
tRp698
ag6
(g8
S'M8'
tRp699
ag6
(g8
S'O8'
tRp700
ag6
(g8
S'O8'
tRp701
ag6
(g8
S'O8'
tRp702
ag6
(g8
S'K8'
tRp703
ag6
(g8
S'N8'
tRp704
ag6
(g8
S'N8'
tRp705
ag6
(g8
S'O8'
tRp706
ag6
(g8
S'N8'
tRp707
ag6
(g8
S'O8'
tRp708
ag6
(g8
S'K8'
tRp709
ag6
(g8
S'R8'
tRp710
ag6
(g8
S'M8'
tRp711
assS'timeAlgorithms'
p712
(dp713
g2
F19.755985716117753
sS'cascadeArchitecture'
p714
F0.020799882544411553
ss.